; Function Attrs: mustprogress uwtable
define hidden void @_ZN3opt6optsmt12update_lowerEjRK16inf_eps_rationalI12inf_rationalE(ptr noundef nonnull readonly align 8 captures(none) dereferenceable(120) %0, i32 noundef %1, ptr noundef nonnull align 8 dereferenceable(96) %2) local_unnamed_addr #4 align 2 personality ptr @__gxx_personality_v0 {
  %4 = alloca %class.obj_ref.42, align 8
  call void @llvm.lifetime.start.p0(i64 16, ptr nonnull %4) #23
  %5 = getelementptr inbounds nuw i8, ptr %0, i64 16
  %6 = load ptr, ptr %5, align 8, !tbaa !16
  call void @_ZN3opt10opt_solver5mk_geEjRK16inf_eps_rationalI12inf_rationalE(ptr dead_on_unwind nonnull writable sret(%class.obj_ref.42) align 8 %4, ptr noundef nonnull align 8 dereferenceable(1042) %6, i32 noundef %1, ptr noundef nonnull align 8 dereferenceable(96) %2)
  %7 = getelementptr inbounds nuw i8, ptr %0, i64 56
  %8 = getelementptr inbounds nuw i8, ptr %0, i64 64
  %9 = load ptr, ptr %8, align 8, !tbaa !63
  %10 = zext i32 %1 to i64
  %11 = getelementptr inbounds nuw ptr, ptr %9, i64 %10
  %12 = load ptr, ptr %7, align 8, !tbaa !66
  %13 = load ptr, ptr %11, align 8, !tbaa !64
  %.not.i.i = icmp eq ptr %13, null
  br i1 %.not.i.i, label %20, label %14

14:                                               ; preds = %3
  %15 = getelementptr inbounds nuw i8, ptr %13, i64 8
  %16 = load i32, ptr %15, align 4, !tbaa !67
  %17 = add i32 %16, -1
  store i32 %17, ptr %15, align 4, !tbaa !67
  %18 = icmp eq i32 %17, 0
  br i1 %18, label %19, label %20

19:                                               ; preds = %14
  invoke void @_ZN11ast_manager11delete_nodeEP3ast(ptr noundef nonnull align 8 dereferenceable(976) %12, ptr noundef nonnull %13)
          to label %20 unwind label %63

20:                                               ; preds = %14, %3, %19
  %21 = load ptr, ptr %4, align 8, !tbaa !131
  store ptr null, ptr %4, align 8, !tbaa !131
  store ptr %21, ptr %11, align 8, !tbaa !64
  %22 = load ptr, ptr %4, align 8, !tbaa !131
  %.not.i.i7 = icmp eq ptr %22, null
  br i1 %.not.i.i7, label %_ZN7obj_refI4expr11ast_managerED2Ev.exit, label %23

23:                                               ; preds = %20
  %24 = getelementptr inbounds nuw i8, ptr %4, i64 8
  %25 = load ptr, ptr %24, align 8, !tbaa !135
  %26 = getelementptr inbounds nuw i8, ptr %22, i64 8
  %27 = load i32, ptr %26, align 4, !tbaa !67
  %28 = add i32 %27, -1
  store i32 %28, ptr %26, align 4, !tbaa !67
  %29 = icmp eq i32 %28, 0
  br i1 %29, label %30, label %_ZN7obj_refI4expr11ast_managerED2Ev.exit

30:                                               ; preds = %23
  invoke void @_ZN11ast_manager11delete_nodeEP3ast(ptr noundef nonnull align 8 dereferenceable(976) %25, ptr noundef nonnull %22)
          to label %_ZN7obj_refI4expr11ast_managerED2Ev.exit unwind label %31

31:                                               ; preds = %30
  %32 = landingpad { ptr, i32 }
          catch ptr null
  %33 = extractvalue { ptr, i32 } %32, 0
  call void @__clang_call_terminate(ptr %33) #24
  unreachable

_ZN7obj_refI4expr11ast_managerED2Ev.exit:         ; preds = %20, %23, %30
  call void @llvm.lifetime.end.p0(i64 16, ptr nonnull %4) #23
  %34 = getelementptr inbounds nuw i8, ptr %0, i64 24
  %35 = load ptr, ptr %34, align 8, !tbaa !3
  %36 = getelementptr inbounds nuw %class.inf_eps_rational, ptr %35, i64 %10
  %37 = load ptr, ptr @_ZN8rational13g_mpq_managerE, align 8, !tbaa !11
  %38 = getelementptr inbounds nuw i8, ptr %2, i64 4
  %39 = load i8, ptr %38, align 4
  %40 = and i8 %39, 1
  %41 = icmp eq i8 %40, 0
  br i1 %41, label %42, label %47

42:                                               ; preds = %_ZN7obj_refI4expr11ast_managerED2Ev.exit
  %43 = load i32, ptr %2, align 8, !tbaa !13
  store i32 %43, ptr %36, align 8, !tbaa !13
  %44 = getelementptr inbounds nuw i8, ptr %36, i64 4
  %45 = load i8, ptr %44, align 4
  %46 = and i8 %45, -2
  store i8 %46, ptr %44, align 4
  br label %_ZN11mpq_managerILb1EE3setER3mpzRKS1_.exit.i.i.i

47:                                               ; preds = %_ZN7obj_refI4expr11ast_managerED2Ev.exit
  call void @_ZN11mpz_managerILb1EE7big_setER3mpzRKS1_(ptr noundef nonnull align 8 dereferenceable(728) %37, ptr noundef nonnull align 8 dereferenceable(96) %36, ptr noundef nonnull align 8 dereferenceable(96) %2)
  br label %_ZN11mpq_managerILb1EE3setER3mpzRKS1_.exit.i.i.i

_ZN11mpq_managerILb1EE3setER3mpzRKS1_.exit.i.i.i: ; preds = %47, %42
  %48 = getelementptr inbounds nuw i8, ptr %36, i64 16
  %49 = getelementptr inbounds nuw i8, ptr %2, i64 16
  %50 = getelementptr inbounds nuw i8, ptr %2, i64 20
  %51 = load i8, ptr %50, align 4
  %52 = and i8 %51, 1
  %53 = icmp eq i8 %52, 0
  br i1 %53, label %54, label %59

54:                                               ; preds = %_ZN11mpq_managerILb1EE3setER3mpzRKS1_.exit.i.i.i
  %55 = load i32, ptr %49, align 8, !tbaa !13
  store i32 %55, ptr %48, align 8, !tbaa !13
  %56 = getelementptr inbounds nuw i8, ptr %36, i64 20
  %57 = load i8, ptr %56, align 4
  %58 = and i8 %57, -2
  store i8 %58, ptr %56, align 4
  br label %_ZN16inf_eps_rationalI12inf_rationalEaSERKS1_.exit

59:                                               ; preds = %_ZN11mpq_managerILb1EE3setER3mpzRKS1_.exit.i.i.i
  call void @_ZN11mpz_managerILb1EE7big_setER3mpzRKS1_(ptr noundef nonnull align 8 dereferenceable(728) %37, ptr noundef nonnull align 8 dereferenceable(16) %48, ptr noundef nonnull align 8 dereferenceable(16) %49)
  br label %_ZN16inf_eps_rationalI12inf_rationalEaSERKS1_.exit

_ZN16inf_eps_rationalI12inf_rationalEaSERKS1_.exit: ; preds = %54, %59
  %60 = getelementptr inbounds nuw i8, ptr %36, i64 32
  %61 = getelementptr inbounds nuw i8, ptr %2, i64 32
  %62 = call noundef nonnull align 8 dereferenceable(64) ptr @_ZN12inf_rationalaSERKS_(ptr noundef nonnull align 8 dereferenceable(64) %60, ptr noundef nonnull align 8 dereferenceable(64) %61)
  ret void

63:                                               ; preds = %19
  %64 = landingpad { ptr, i32 }
          cleanup
  call void @_ZN7obj_refI4expr11ast_managerED2Ev(ptr noundef nonnull align 8 dereferenceable(16) %4) #23
  call void @llvm.lifetime.end.p0(i64 16, ptr nonnull %4) #23
  resume { ptr, i32 } %64
}